target datalayout = "e-m:e-p270:32:32-p271:32:32-p272:64:64-i64:64-i128:128-f80:128-n8:16:32:64-S128"
target triple = "x86_64-pc-linux-gnu"

%struct._netif = type { ptr, i32, i8, ptr, ptr, ptr }

; Function Attrs: nounwind uwtable
define ptr @Java_java_net_NetworkInterface_getByIndex0(ptr noundef %0, ptr noundef %1, i32 noundef %2) #0 {
  %4 = alloca ptr, align 8
  %5 = alloca ptr, align 8
  %6 = alloca ptr, align 8
  %7 = alloca i32, align 4
  %8 = alloca ptr, align 8
  %9 = alloca ptr, align 8
  %10 = alloca ptr, align 8
  store ptr %0, ptr %5, align 8
  store ptr %1, ptr %6, align 8
  store i32 %2, ptr %7, align 4
  store ptr null, ptr %10, align 8
  %11 = load i32, ptr %7, align 4
  %12 = icmp sle i32 %11, 0
  br i1 %12, label %13, label %14

13:                                               ; preds = %3
  store ptr null, ptr %4, align 8
  br label %46

14:                                               ; preds = %3
  %15 = load ptr, ptr %5, align 8
  %16 = call ptr @enumInterfaces(ptr noundef %15)
  store ptr %16, ptr %8, align 8
  %17 = load ptr, ptr %8, align 8
  %18 = icmp eq ptr %17, null
  br i1 %18, label %19, label %20

19:                                               ; preds = %14
  store ptr null, ptr %4, align 8
  br label %46

20:                                               ; preds = %14
  %21 = load ptr, ptr %8, align 8
  store ptr %21, ptr %9, align 8
  br label %22

22:                                               ; preds = %32, %20
  %23 = load ptr, ptr %9, align 8
  %24 = icmp ne ptr %23, null
  br i1 %24, label %25, label %36

25:                                               ; preds = %22
  %26 = load i32, ptr %7, align 4
  %27 = load ptr, ptr %9, align 8
  %28 = getelementptr inbounds %struct._netif, ptr %27, i32 0, i32 1
  %29 = load i32, ptr %28, align 8
  %30 = icmp eq i32 %26, %29
  br i1 %30, label %31, label %32

31:                                               ; preds = %25
  br label %36

32:                                               ; preds = %25
  %33 = load ptr, ptr %9, align 8
  %34 = getelementptr inbounds %struct._netif, ptr %33, i32 0, i32 5
  %35 = load ptr, ptr %34, align 8
  store ptr %35, ptr %9, align 8
  br label %22, !llvm.loop !15

36:                                               ; preds = %31, %22
  %37 = load ptr, ptr %9, align 8
  %38 = icmp ne ptr %37, null
  br i1 %38, label %39, label %43

39:                                               ; preds = %36
  %40 = load ptr, ptr %5, align 8
  %41 = load ptr, ptr %9, align 8
  %42 = call ptr @createNetworkInterface(ptr noundef %40, ptr noundef %41)
  store ptr %42, ptr %10, align 8
  br label %43

43:                                               ; preds = %39, %36
  %44 = load ptr, ptr %8, align 8
  call void @freeif(ptr noundef %44)
  %45 = load ptr, ptr %10, align 8
  store ptr %45, ptr %4, align 8
  br label %46

46:                                               ; preds = %43, %19, %13
  %47 = load ptr, ptr %4, align 8
  ret ptr %47
}