; Function Attrs: nounwind uwtable
define ptr @Java_java_net_NetworkInterface_getByIndex0(ptr noundef %0, ptr nocapture noundef readnone %1, i32 noundef %2) local_unnamed_addr #0 {
  %4 = icmp slt i32 %2, 1
  br i1 %4, label %16, label %5

5:                                                ; preds = %3
  %6 = tail call fastcc ptr @enumInterfaces(ptr noundef %0)
  %7 = icmp eq ptr %6, null
  br i1 %7, label %16, label %.preheader

.preheader:                                       ; preds = %5, %11
  %.01318 = phi ptr [ %13, %11 ], [ %6, %5 ]
  %8 = getelementptr inbounds i8, ptr %.01318, i64 8
  %9 = load i32, ptr %8, align 8
  %10 = icmp eq i32 %9, %2
  br i1 %10, label %14, label %11

11:                                               ; preds = %.preheader
  %12 = getelementptr inbounds i8, ptr %.01318, i64 32
  %13 = load ptr, ptr %12, align 8
  %.not = icmp eq ptr %13, null
  br i1 %.not, label %.critedge, label %.preheader, !llvm.loop !15

14:                                               ; preds = %.preheader
  %15 = tail call fastcc ptr @createNetworkInterface(ptr noundef %0, ptr noundef nonnull %.01318)
  br label %.critedge

.critedge:                                        ; preds = %11, %14
  %.0 = phi ptr [ %15, %14 ], [ null, %11 ]
  tail call fastcc void @freeif(ptr noundef nonnull %6)
  br label %16

16:                                               ; preds = %5, %3, %.critedge
  %.014 = phi ptr [ %.0, %.critedge ], [ null, %3 ], [ null, %5 ]
  ret ptr %.014
}